target datalayout = "e-m:e-p270:32:32-p271:32:32-p272:64:64-i64:64-i128:128-f80:128-n8:16:32:64-S128"
target triple = "x86_64-pc-linux-gnu"

@line = dso_local global i32 1, align 4
@filename = dso_local global ptr null, align 8
@stderr = external global ptr, align 8
@.str.82 = private unnamed_addr constant [8 x i8] c"%s:%d: \00", align 1

; Function Attrs: mustprogress nounwind uwtable
define internal void @_ZL5errorIJPKcEEvS1_DpT_(ptr noundef %0, ptr noundef %1) #1 {
  %3 = alloca ptr, align 8
  %4 = alloca ptr, align 8
  store ptr %0, ptr %3, align 8, !tbaa !12
  store ptr %1, ptr %4, align 8, !tbaa !12
  %5 = load ptr, ptr @stderr, align 8, !tbaa !56
  %6 = load ptr, ptr @filename, align 8, !tbaa !12
  %7 = load i32, ptr @line, align 4, !tbaa !4
  %8 = call i32 (ptr, ptr, ...) @fprintf(ptr noundef %5, ptr noundef @.str.82, ptr noundef %6, i32 noundef %7) #20
  %9 = load ptr, ptr @stderr, align 8, !tbaa !56
  %10 = load ptr, ptr %3, align 8, !tbaa !12
  %11 = load ptr, ptr %4, align 8, !tbaa !12
  %12 = call i32 (ptr, ptr, ...) @fprintf(ptr noundef %9, ptr noundef %10, ptr noundef %11) #20
  call void @exit(i32 noundef 1) #23
  unreachable
}